target datalayout = "e-m:e-p270:32:32-p271:32:32-p272:64:64-i64:64-i128:128-f80:128-n8:16:32:64-S128"
target triple = "x86_64-pc-linux-gnu"

%struct._ikev2_encr_alg_spec = type { i32, i32, i32, i32, i32, i32, i32, i32 }
%struct._ikev2_auth_alg_spec = type { i32, i32, i32, i32, i32, i32 }
%struct._ikev1_uat_data_key = type { ptr, i32, ptr, i32 }
%struct._ikev2_uat_data = type { %struct._ikev2_uat_data_key, i32, i32, ptr, i32, ptr, i32, ptr, i32, ptr, i32, ptr, ptr }
%struct._ikev2_uat_data_key = type { ptr, i32, ptr, i32 }
%struct.decrypt_data = type { i8, %struct._address, i32, i32, i32, i32, i64, i64, i32, i32, i32, ptr, i32, ptr, i32, [256 x i8], i32, ptr, i32 }
%struct._address = type { i32, i32, ptr, ptr }

@ikev1_uat_data = internal global ptr null, align 8
@num_ikev1_uat_data = internal global i32 0, align 4
@ikev2_uat_data = internal global ptr null, align 8
@num_ikev2_uat_data = internal global i32 0, align 4
@defrag_next_payload_hash = internal global ptr null, align 8
@isakmp_hash = internal global ptr null, align 8
@ikev2_key_hash = internal global ptr null, align 8

; Function Attrs: inlinehint nounwind null_pointer_is_valid sspstrong uwtable
define internal void @clear_address(ptr noundef %0) #3 {
  %2 = alloca ptr, align 8
  store ptr %0, ptr %2, align 8
  %3 = load ptr, ptr %2, align 8
  %4 = getelementptr inbounds nuw %struct._address, ptr %3, i32 0, i32 0
  store i32 0, ptr %4, align 8
  %5 = load ptr, ptr %2, align 8
  %6 = getelementptr inbounds nuw %struct._address, ptr %5, i32 0, i32 1
  store i32 0, ptr %6, align 4
  %7 = load ptr, ptr %2, align 8
  %8 = getelementptr inbounds nuw %struct._address, ptr %7, i32 0, i32 2
  store ptr null, ptr %8, align 8
  %9 = load ptr, ptr %2, align 8
  %10 = getelementptr inbounds nuw %struct._address, ptr %9, i32 0, i32 3
  store ptr null, ptr %10, align 8
  ret void
}

; Function Attrs: alwaysinline nounwind
define internal ptr @memset.inline(ptr %0, i32 %1, i64 %2) #8 {
  %4 = alloca ptr, align 8
  %5 = alloca i32, align 4
  %6 = alloca i64, align 8
  store ptr %0, ptr %4, align 8
  store i32 %1, ptr %5, align 4
  store i64 %2, ptr %6, align 8
  %7 = load ptr, ptr %4, align 8
  %8 = load i32, ptr %5, align 4
  %9 = load i64, ptr %6, align 8
  %10 = load ptr, ptr %4, align 8
  %11 = call i64 @llvm.objectsize.i64.p0(ptr %10, i1 false, i1 true, i1 true)
  %12 = call ptr @__memset_chk(ptr noundef %7, i32 noundef %8, i64 noundef %9, i64 noundef %11) #16
  ret ptr %12
}

; Function Attrs: nounwind null_pointer_is_valid sspstrong uwtable
define internal ptr @ikev2_decrypt_find_auth_spec(i32 noundef %0) #11 {
  %2 = alloca ptr, align 8
  %3 = alloca i32, align 4
  %4 = alloca ptr, align 8
  %5 = alloca i32, align 4
  store i32 %0, ptr %3, align 4
  call void @llvm.lifetime.start.p0(i64 8, ptr %4) #16
  store ptr @ikev2_auth_algs, ptr %4, align 8
  br label %6

6:                                                ; preds = %20, %1
  %7 = load ptr, ptr %4, align 8
  %8 = getelementptr inbounds nuw %struct._ikev2_auth_alg_spec, ptr %7, i32 0, i32 0
  %9 = load i32, ptr %8, align 4
  %10 = icmp ne i32 %9, 0
  br i1 %10, label %11, label %23

11:                                               ; preds = %6
  %12 = load ptr, ptr %4, align 8
  %13 = getelementptr inbounds nuw %struct._ikev2_auth_alg_spec, ptr %12, i32 0, i32 0
  %14 = load i32, ptr %13, align 4
  %15 = load i32, ptr %3, align 4
  %16 = icmp eq i32 %14, %15
  br i1 %16, label %17, label %19

17:                                               ; preds = %11
  %18 = load ptr, ptr %4, align 8
  store ptr %18, ptr %2, align 8
  store i32 1, ptr %5, align 4
  br label %24

19:                                               ; preds = %11
  br label %20

20:                                               ; preds = %19
  %21 = load ptr, ptr %4, align 8
  %22 = getelementptr %struct._ikev2_auth_alg_spec, ptr %21, i32 1
  store ptr %22, ptr %4, align 8
  br label %6, !llvm.loop !51

23:                                               ; preds = %6
  store ptr null, ptr %2, align 8
  store i32 1, ptr %5, align 4
  br label %24

24:                                               ; preds = %23, %17
  call void @llvm.lifetime.end.p0(i64 8, ptr %4) #16
  %25 = load ptr, ptr %2, align 8
  ret ptr %25
}

; Function Attrs: nounwind null_pointer_is_valid sspstrong uwtable
define internal ptr @ikev2_decrypt_find_encr_spec(i32 noundef %0) #11 {
  %2 = alloca ptr, align 8
  %3 = alloca i32, align 4
  %4 = alloca ptr, align 8
  %5 = alloca i32, align 4
  store i32 %0, ptr %3, align 4
  call void @llvm.lifetime.start.p0(i64 8, ptr %4) #16
  store ptr @ikev2_encr_algs, ptr %4, align 8
  br label %6

6:                                                ; preds = %20, %1
  %7 = load ptr, ptr %4, align 8
  %8 = getelementptr inbounds nuw %struct._ikev2_encr_alg_spec, ptr %7, i32 0, i32 0
  %9 = load i32, ptr %8, align 4
  %10 = icmp ne i32 %9, 0
  br i1 %10, label %11, label %23

11:                                               ; preds = %6
  %12 = load ptr, ptr %4, align 8
  %13 = getelementptr inbounds nuw %struct._ikev2_encr_alg_spec, ptr %12, i32 0, i32 0
  %14 = load i32, ptr %13, align 4
  %15 = load i32, ptr %3, align 4
  %16 = icmp eq i32 %14, %15
  br i1 %16, label %17, label %19

17:                                               ; preds = %11
  %18 = load ptr, ptr %4, align 8
  store ptr %18, ptr %2, align 8
  store i32 1, ptr %5, align 4
  br label %24

19:                                               ; preds = %11
  br label %20

20:                                               ; preds = %19
  %21 = load ptr, ptr %4, align 8
  %22 = getelementptr %struct._ikev2_encr_alg_spec, ptr %21, i32 1
  store ptr %22, ptr %4, align 8
  br label %6, !llvm.loop !50

23:                                               ; preds = %6
  store ptr null, ptr %2, align 8
  store i32 1, ptr %5, align 4
  br label %24

24:                                               ; preds = %23, %17
  call void @llvm.lifetime.end.p0(i64 8, ptr %4) #16
  %25 = load ptr, ptr %2, align 8
  ret ptr %25
}

; Function Attrs: null_pointer_is_valid sspstrong uwtable
define internal ptr @create_decrypt_data() #0 {
  %1 = alloca ptr, align 8
  call void @llvm.lifetime.start.p0(i64 8, ptr %1) #16
  %2 = call noalias ptr @g_slice_alloc(i64 noundef 384) #19
  store ptr %2, ptr %1, align 8
  %3 = load ptr, ptr %1, align 8
  %4 = call ptr @memset.inline(ptr noundef %3, i32 noundef 0, i64 noundef 384) #16
  %5 = call ptr @g_hash_table_new(ptr noundef null, ptr noundef null)
  %6 = load ptr, ptr %1, align 8
  %7 = getelementptr inbounds nuw %struct.decrypt_data, ptr %6, i32 0, i32 17
  store ptr %5, ptr %7, align 8
  %8 = load ptr, ptr %1, align 8
  %9 = getelementptr inbounds nuw %struct.decrypt_data, ptr %8, i32 0, i32 1
  call void @clear_address(ptr noundef %9)
  %10 = load ptr, ptr %1, align 8
  call void @llvm.lifetime.end.p0(i64 8, ptr %1) #16
  ret ptr %10
}

; Function Attrs: alwaysinline nounwind
define internal ptr @memcpy.inline(ptr noalias %0, ptr noalias %1, i64 %2) #8 {
  %4 = alloca ptr, align 8
  %5 = alloca ptr, align 8
  %6 = alloca i64, align 8
  store ptr %0, ptr %4, align 8
  store ptr %1, ptr %5, align 8
  store i64 %2, ptr %6, align 8
  %7 = load ptr, ptr %4, align 8
  %8 = load ptr, ptr %5, align 8
  %9 = load i64, ptr %6, align 8
  %10 = load ptr, ptr %4, align 8
  %11 = call i64 @llvm.objectsize.i64.p0(ptr %10, i1 false, i1 true, i1 true)
  %12 = call ptr @__memcpy_chk(ptr noundef %7, ptr noundef %8, i64 noundef %9, i64 noundef %11) #16
  ret ptr %12
}

; Function Attrs: null_pointer_is_valid sspstrong uwtable
define internal void @isakmp_init_protocol() #0 {
  %1 = alloca i32, align 4
  %2 = alloca ptr, align 8
  %3 = alloca ptr, align 8
  call void @llvm.lifetime.start.p0(i64 4, ptr %1) #16
  call void @llvm.lifetime.start.p0(i64 8, ptr %2) #16
  call void @llvm.lifetime.start.p0(i64 8, ptr %3) #16
  %4 = call ptr @g_hash_table_new_full(ptr noundef @isakmp_hash_func, ptr noundef @isakmp_equal_func, ptr noundef @free_cookie_key, ptr noundef @free_cookie_value)
  store ptr %4, ptr @isakmp_hash, align 8
  store i32 0, ptr %1, align 4
  br label %5

5:                                                ; preds = %49, %0
  %6 = load i32, ptr %1, align 4
  %7 = load i32, ptr @num_ikev1_uat_data, align 4
  %8 = icmp ult i32 %6, %7
  br i1 %8, label %9, label %52

9:                                                ; preds = %5
  %10 = call noalias ptr @g_slice_alloc(i64 noundef 8) #19
  store ptr %10, ptr %3, align 8
  %11 = load ptr, ptr %3, align 8
  %12 = load ptr, ptr @ikev1_uat_data, align 8
  %13 = load i32, ptr %1, align 4
  %14 = zext i32 %13 to i64
  %15 = getelementptr %struct._ikev1_uat_data_key, ptr %12, i64 %14
  %16 = getelementptr inbounds nuw %struct._ikev1_uat_data_key, ptr %15, i32 0, i32 0
  %17 = load ptr, ptr %16, align 8
  %18 = call ptr @memcpy.inline(ptr noundef %11, ptr noundef %17, i64 noundef 8) #16
  %19 = call ptr @create_decrypt_data()
  store ptr %19, ptr %2, align 8
  %20 = load ptr, ptr %2, align 8
  %21 = getelementptr inbounds nuw %struct.decrypt_data, ptr %20, i32 0, i32 15
  %22 = getelementptr inbounds [256 x i8], ptr %21, i64 0, i64 0
  %23 = load ptr, ptr @ikev1_uat_data, align 8
  %24 = load i32, ptr %1, align 4
  %25 = zext i32 %24 to i64
  %26 = getelementptr %struct._ikev1_uat_data_key, ptr %23, i64 %25
  %27 = getelementptr inbounds nuw %struct._ikev1_uat_data_key, ptr %26, i32 0, i32 2
  %28 = load ptr, ptr %27, align 8
  %29 = load ptr, ptr @ikev1_uat_data, align 8
  %30 = load i32, ptr %1, align 4
  %31 = zext i32 %30 to i64
  %32 = getelementptr %struct._ikev1_uat_data_key, ptr %29, i64 %31
  %33 = getelementptr inbounds nuw %struct._ikev1_uat_data_key, ptr %32, i32 0, i32 3
  %34 = load i32, ptr %33, align 8
  %35 = zext i32 %34 to i64
  %36 = call ptr @memcpy.inline(ptr noundef %22, ptr noundef %28, i64 noundef %35) #16
  %37 = load ptr, ptr @ikev1_uat_data, align 8
  %38 = load i32, ptr %1, align 4
  %39 = zext i32 %38 to i64
  %40 = getelementptr %struct._ikev1_uat_data_key, ptr %37, i64 %39
  %41 = getelementptr inbounds nuw %struct._ikev1_uat_data_key, ptr %40, i32 0, i32 3
  %42 = load i32, ptr %41, align 8
  %43 = load ptr, ptr %2, align 8
  %44 = getelementptr inbounds nuw %struct.decrypt_data, ptr %43, i32 0, i32 16
  store i32 %42, ptr %44, align 4
  %45 = load ptr, ptr @isakmp_hash, align 8
  %46 = load ptr, ptr %3, align 8
  %47 = load ptr, ptr %2, align 8
  %48 = call i32 @g_hash_table_insert(ptr noundef %45, ptr noundef %46, ptr noundef %47)
  br label %49

49:                                               ; preds = %9
  %50 = load i32, ptr %1, align 4
  %51 = add i32 %50, 1
  store i32 %51, ptr %1, align 4
  br label %5, !llvm.loop !14

52:                                               ; preds = %5
  %53 = call ptr @g_hash_table_new(ptr noundef @ikev2_key_hash_func, ptr noundef @ikev2_key_equal_func)
  store ptr %53, ptr @ikev2_key_hash, align 8
  store i32 0, ptr %1, align 4
  br label %54

54:                                               ; preds = %94, %52
  %55 = load i32, ptr %1, align 4
  %56 = load i32, ptr @num_ikev2_uat_data, align 4
  %57 = icmp ult i32 %55, %56
  br i1 %57, label %58, label %97

58:                                               ; preds = %54
  %59 = load ptr, ptr @ikev2_key_hash, align 8
  %60 = load ptr, ptr @ikev2_uat_data, align 8
  %61 = load i32, ptr %1, align 4
  %62 = zext i32 %61 to i64
  %63 = getelementptr %struct._ikev2_uat_data, ptr %60, i64 %62
  %64 = getelementptr inbounds nuw %struct._ikev2_uat_data, ptr %63, i32 0, i32 0
  %65 = load ptr, ptr @ikev2_uat_data, align 8
  %66 = load i32, ptr %1, align 4
  %67 = zext i32 %66 to i64
  %68 = getelementptr %struct._ikev2_uat_data, ptr %65, i64 %67
  %69 = call i32 @g_hash_table_insert(ptr noundef %59, ptr noundef %64, ptr noundef %68)
  %70 = load ptr, ptr @ikev2_uat_data, align 8
  %71 = load i32, ptr %1, align 4
  %72 = zext i32 %71 to i64
  %73 = getelementptr %struct._ikev2_uat_data, ptr %70, i64 %72
  %74 = getelementptr inbounds nuw %struct._ikev2_uat_data, ptr %73, i32 0, i32 1
  %75 = load i32, ptr %74, align 8
  %76 = call ptr @ikev2_decrypt_find_encr_spec(i32 noundef %75)
  %77 = load ptr, ptr @ikev2_uat_data, align 8
  %78 = load i32, ptr %1, align 4
  %79 = zext i32 %78 to i64
  %80 = getelementptr %struct._ikev2_uat_data, ptr %77, i64 %79
  %81 = getelementptr inbounds nuw %struct._ikev2_uat_data, ptr %80, i32 0, i32 11
  store ptr %76, ptr %81, align 8
  %82 = load ptr, ptr @ikev2_uat_data, align 8
  %83 = load i32, ptr %1, align 4
  %84 = zext i32 %83 to i64
  %85 = getelementptr %struct._ikev2_uat_data, ptr %82, i64 %84
  %86 = getelementptr inbounds nuw %struct._ikev2_uat_data, ptr %85, i32 0, i32 2
  %87 = load i32, ptr %86, align 4
  %88 = call ptr @ikev2_decrypt_find_auth_spec(i32 noundef %87)
  %89 = load ptr, ptr @ikev2_uat_data, align 8
  %90 = load i32, ptr %1, align 4
  %91 = zext i32 %90 to i64
  %92 = getelementptr %struct._ikev2_uat_data, ptr %89, i64 %91
  %93 = getelementptr inbounds nuw %struct._ikev2_uat_data, ptr %92, i32 0, i32 12
  store ptr %88, ptr %93, align 8
  br label %94

94:                                               ; preds = %58
  %95 = load i32, ptr %1, align 4
  %96 = add i32 %95, 1
  store i32 %96, ptr %1, align 4
  br label %54, !llvm.loop !15

97:                                               ; preds = %54
  %98 = call ptr @g_hash_table_new(ptr noundef @g_direct_hash, ptr noundef @g_direct_equal)
  store ptr %98, ptr @defrag_next_payload_hash, align 8
  call void @llvm.lifetime.end.p0(i64 8, ptr %3) #16
  call void @llvm.lifetime.end.p0(i64 8, ptr %2) #16
  call void @llvm.lifetime.end.p0(i64 4, ptr %1) #16
  ret void
}