; Function Attrs: null_pointer_is_valid sspstrong uwtable
define internal void @isakmp_init_protocol() #0 {
  %1 = tail call ptr @g_hash_table_new_full(ptr noundef nonnull @isakmp_hash_func, ptr noundef nonnull @isakmp_equal_func, ptr noundef nonnull @free_cookie_key, ptr noundef nonnull @free_cookie_value)
  store ptr %1, ptr @isakmp_hash, align 8
  %2 = load i32, ptr @num_ikev1_uat_data, align 4
  %.not = icmp eq i32 %2, 0
  br i1 %.not, label %._crit_edge, label %.lr.ph

.lr.ph:                                           ; preds = %0, %.lr.ph
  %indvars.iv = phi i64 [ %indvars.iv.next, %.lr.ph ], [ 0, %0 ]
  %3 = tail call noalias dereferenceable_or_null(8) ptr @g_slice_alloc(i64 noundef 8) #21
  %4 = load ptr, ptr @ikev1_uat_data, align 8
  %5 = getelementptr %struct._ikev1_uat_data_key, ptr %4, i64 %indvars.iv
  %6 = load ptr, ptr %5, align 8
  %7 = load i64, ptr %6, align 1
  store i64 %7, ptr %3, align 1
  %8 = tail call noalias dereferenceable_or_null(384) ptr @g_slice_alloc(i64 noundef 384) #21
  tail call void @llvm.memset.p0.i64(ptr noundef align 1 dereferenceable(384) %8, i8 noundef 0, i64 noundef 384, i1 noundef false) #20
  %9 = tail call ptr @g_hash_table_new(ptr noundef null, ptr noundef null)
  %10 = getelementptr inbounds nuw i8, ptr %8, i64 368
  store ptr %9, ptr %10, align 8
  %11 = getelementptr inbounds nuw i8, ptr %8, i64 8
  tail call void @llvm.memset.p0.i64(ptr noundef nonnull align 8 dereferenceable(24) %11, i8 0, i64 24, i1 false)
  %12 = getelementptr inbounds nuw i8, ptr %8, i64 108
  %13 = load ptr, ptr @ikev1_uat_data, align 8
  %14 = getelementptr %struct._ikev1_uat_data_key, ptr %13, i64 %indvars.iv
  %15 = getelementptr inbounds nuw i8, ptr %14, i64 16
  %16 = load ptr, ptr %15, align 8
  %17 = getelementptr inbounds nuw i8, ptr %14, i64 24
  %18 = load i32, ptr %17, align 8
  %19 = zext i32 %18 to i64
  %20 = tail call ptr @__memcpy_chk(ptr noundef nonnull %12, ptr noundef %16, i64 noundef %19, i64 noundef 276) #20, !alias.scope !41
  %21 = getelementptr %struct._ikev1_uat_data_key, ptr %13, i64 %indvars.iv, i32 3
  %22 = load i32, ptr %21, align 8
  %23 = getelementptr inbounds nuw i8, ptr %8, i64 364
  store i32 %22, ptr %23, align 4
  %24 = load ptr, ptr @isakmp_hash, align 8
  %25 = tail call i32 @g_hash_table_insert(ptr noundef %24, ptr noundef %3, ptr noundef %8)
  %indvars.iv.next = add nuw nsw i64 %indvars.iv, 1
  %26 = load i32, ptr @num_ikev1_uat_data, align 4
  %27 = zext i32 %26 to i64
  %28 = icmp samesign ult i64 %indvars.iv.next, %27
  br i1 %28, label %.lr.ph, label %._crit_edge, !llvm.loop !45

._crit_edge:                                      ; preds = %.lr.ph, %0
  %29 = tail call ptr @g_hash_table_new(ptr noundef nonnull @ikev2_key_hash_func, ptr noundef nonnull @ikev2_key_equal_func)
  store ptr %29, ptr @ikev2_key_hash, align 8
  %30 = load i32, ptr @num_ikev2_uat_data, align 4
  %.not28 = icmp eq i32 %30, 0
  br i1 %.not28, label %._crit_edge27, label %.lr.ph26

.lr.ph26:                                         ; preds = %._crit_edge, %ikev2_decrypt_find_auth_spec.exit
  %indvars.iv30 = phi i64 [ %indvars.iv.next31, %ikev2_decrypt_find_auth_spec.exit ], [ 0, %._crit_edge ]
  %31 = load ptr, ptr @ikev2_key_hash, align 8
  %32 = load ptr, ptr @ikev2_uat_data, align 8
  %33 = getelementptr %struct._ikev2_uat_data, ptr %32, i64 %indvars.iv30
  %34 = tail call i32 @g_hash_table_insert(ptr noundef %31, ptr noundef %33, ptr noundef %33)
  %35 = load ptr, ptr @ikev2_uat_data, align 8
  %36 = getelementptr %struct._ikev2_uat_data, ptr %35, i64 %indvars.iv30, i32 1
  %37 = load i32, ptr %36, align 8
  %38 = load i32, ptr @ikev2_encr_algs, align 16
  %.not7.i = icmp eq i32 %38, 0
  br i1 %.not7.i, label %ikev2_decrypt_find_encr_spec.exit, label %.lr.ph.i

.lr.ph.i:                                         ; preds = %.lr.ph26, %41
  %39 = phi i32 [ %43, %41 ], [ %38, %.lr.ph26 ]
  %.08.i = phi ptr [ %42, %41 ], [ @ikev2_encr_algs, %.lr.ph26 ]
  %40 = icmp eq i32 %39, %37
  br i1 %40, label %ikev2_decrypt_find_encr_spec.exit, label %41

41:                                               ; preds = %.lr.ph.i
  %42 = getelementptr i8, ptr %.08.i, i64 32
  %43 = load i32, ptr %42, align 4
  %.not.i = icmp eq i32 %43, 0
  br i1 %.not.i, label %ikev2_decrypt_find_encr_spec.exit, label %.lr.ph.i, !llvm.loop !46

ikev2_decrypt_find_encr_spec.exit:                ; preds = %.lr.ph.i, %41, %.lr.ph26
  %.05.i = phi ptr [ null, %.lr.ph26 ], [ %.08.i, %.lr.ph.i ], [ null, %41 ]
  %44 = getelementptr %struct._ikev2_uat_data, ptr %35, i64 %indvars.iv30, i32 11
  store ptr %.05.i, ptr %44, align 8
  %45 = load ptr, ptr @ikev2_uat_data, align 8
  %46 = getelementptr %struct._ikev2_uat_data, ptr %45, i64 %indvars.iv30, i32 2
  %47 = load i32, ptr %46, align 4
  %48 = load i32, ptr @ikev2_auth_algs, align 16
  %.not7.i18 = icmp eq i32 %48, 0
  br i1 %.not7.i18, label %ikev2_decrypt_find_auth_spec.exit, label %.lr.ph.i19

.lr.ph.i19:                                       ; preds = %ikev2_decrypt_find_encr_spec.exit, %51
  %49 = phi i32 [ %53, %51 ], [ %48, %ikev2_decrypt_find_encr_spec.exit ]
  %.08.i20 = phi ptr [ %52, %51 ], [ @ikev2_auth_algs, %ikev2_decrypt_find_encr_spec.exit ]
  %50 = icmp eq i32 %49, %47
  br i1 %50, label %ikev2_decrypt_find_auth_spec.exit, label %51

51:                                               ; preds = %.lr.ph.i19
  %52 = getelementptr i8, ptr %.08.i20, i64 24
  %53 = load i32, ptr %52, align 4
  %.not.i21 = icmp eq i32 %53, 0
  br i1 %.not.i21, label %ikev2_decrypt_find_auth_spec.exit, label %.lr.ph.i19, !llvm.loop !47

ikev2_decrypt_find_auth_spec.exit:                ; preds = %.lr.ph.i19, %51, %ikev2_decrypt_find_encr_spec.exit
  %.05.i22 = phi ptr [ null, %ikev2_decrypt_find_encr_spec.exit ], [ %.08.i20, %.lr.ph.i19 ], [ null, %51 ]
  %54 = getelementptr %struct._ikev2_uat_data, ptr %45, i64 %indvars.iv30, i32 12
  store ptr %.05.i22, ptr %54, align 8
  %indvars.iv.next31 = add nuw nsw i64 %indvars.iv30, 1
  %55 = load i32, ptr @num_ikev2_uat_data, align 4
  %56 = zext i32 %55 to i64
  %57 = icmp samesign ult i64 %indvars.iv.next31, %56
  br i1 %57, label %.lr.ph26, label %._crit_edge27, !llvm.loop !48

._crit_edge27:                                    ; preds = %ikev2_decrypt_find_auth_spec.exit, %._crit_edge
  %58 = tail call ptr @g_hash_table_new(ptr noundef nonnull @g_direct_hash, ptr noundef nonnull @g_direct_equal)
  store ptr %58, ptr @defrag_next_payload_hash, align 8
  ret void
}